target datalayout = "e-m:e-p270:32:32-p271:32:32-p272:64:64-i64:64-i128:128-f80:128-n8:16:32:64-S128"
target triple = "x86_64-pc-linux-gnu"

%struct.quic_lcid_st = type { %struct.quic_conn_id_st, i64, ptr, i8 }
%struct.quic_conn_id_st = type { i8, [20 x i8] }

; Function Attrs: nounwind uwtable
define internal i64 @bin_hash(ptr noundef %0, i64 noundef %1) #0 {
  %3 = alloca ptr, align 8
  %4 = alloca i64, align 8
  %5 = alloca i64, align 8
  %6 = alloca i64, align 8
  store ptr %0, ptr %3, align 8, !tbaa !63
  store i64 %1, ptr %4, align 8, !tbaa !8
  call void @llvm.lifetime.start.p0(i64 8, ptr %5) #7
  store i64 0, ptr %5, align 8, !tbaa !8
  call void @llvm.lifetime.start.p0(i64 8, ptr %6) #7
  store i64 0, ptr %6, align 8, !tbaa !8
  br label %7

7:                                                ; preds = %23, %2
  %8 = load i64, ptr %6, align 8, !tbaa !8
  %9 = load i64, ptr %4, align 8, !tbaa !8
  %10 = icmp ult i64 %8, %9
  br i1 %10, label %11, label %26

11:                                               ; preds = %7
  %12 = load ptr, ptr %3, align 8, !tbaa !63
  %13 = load i64, ptr %6, align 8, !tbaa !8
  %14 = getelementptr inbounds nuw i8, ptr %12, i64 %13
  %15 = load i8, ptr %14, align 1, !tbaa !37
  %16 = zext i8 %15 to i64
  %17 = load i64, ptr %6, align 8, !tbaa !8
  %18 = urem i64 %17, 8
  %19 = mul i64 8, %18
  %20 = shl i64 %16, %19
  %21 = load i64, ptr %5, align 8, !tbaa !8
  %22 = xor i64 %21, %20
  store i64 %22, ptr %5, align 8, !tbaa !8
  br label %23

23:                                               ; preds = %11
  %24 = load i64, ptr %6, align 8, !tbaa !8
  %25 = add i64 %24, 1
  store i64 %25, ptr %6, align 8, !tbaa !8
  br label %7, !llvm.loop !65

26:                                               ; preds = %7
  %27 = load i64, ptr %5, align 8, !tbaa !8
  call void @llvm.lifetime.end.p0(i64 8, ptr %6) #7
  call void @llvm.lifetime.end.p0(i64 8, ptr %5) #7
  ret i64 %27
}

; Function Attrs: nounwind uwtable
define internal i64 @lcid_hash(ptr noundef %0) #0 {
  %2 = alloca ptr, align 8
  store ptr %0, ptr %2, align 8, !tbaa !20
  %3 = load ptr, ptr %2, align 8, !tbaa !20
  %4 = getelementptr inbounds nuw %struct.quic_lcid_st, ptr %3, i32 0, i32 0
  %5 = getelementptr inbounds nuw %struct.quic_conn_id_st, ptr %4, i32 0, i32 1
  %6 = getelementptr inbounds [20 x i8], ptr %5, i64 0, i64 0
  %7 = load ptr, ptr %2, align 8, !tbaa !20
  %8 = getelementptr inbounds nuw %struct.quic_lcid_st, ptr %7, i32 0, i32 0
  %9 = getelementptr inbounds nuw %struct.quic_conn_id_st, ptr %8, i32 0, i32 0
  %10 = load i8, ptr %9, align 8, !tbaa !22
  %11 = zext i8 %10 to i64
  %12 = call i64 @bin_hash(ptr noundef %6, i64 noundef %11)
  ret i64 %12
}