; Function Attrs: nofree norecurse nosync nounwind memory(argmem: read) uwtable
define internal i64 @lcid_hash(ptr noundef readonly captures(none) %0) #3 {
  %2 = getelementptr inbounds nuw i8, ptr %0, i64 1
  %3 = load i8, ptr %0, align 8, !tbaa !15
  %4 = zext i8 %3 to i64
  %.not.i = icmp eq i8 %3, 0
  br i1 %.not.i, label %bin_hash.exit, label %.lr.ph.i

.lr.ph.i:                                         ; preds = %1, %.lr.ph.i
  %.09.i = phi i64 [ %12, %.lr.ph.i ], [ 0, %1 ]
  %.078.i = phi i64 [ %11, %.lr.ph.i ], [ 0, %1 ]
  %5 = getelementptr inbounds nuw i8, ptr %2, i64 %.09.i
  %6 = load i8, ptr %5, align 1, !tbaa !20
  %7 = zext i8 %6 to i64
  %8 = shl i64 %.09.i, 3
  %9 = and i64 %8, 56
  %10 = shl nuw i64 %7, %9
  %11 = xor i64 %10, %.078.i
  %12 = add nuw nsw i64 %.09.i, 1
  %exitcond.not.i = icmp eq i64 %12, %4
  br i1 %exitcond.not.i, label %bin_hash.exit, label %.lr.ph.i, !llvm.loop !21

bin_hash.exit:                                    ; preds = %.lr.ph.i, %1
  %.07.lcssa.i = phi i64 [ 0, %1 ], [ %11, %.lr.ph.i ]
  ret i64 %.07.lcssa.i
}